; Function Attrs: mustprogress uwtable
define hidden noundef zeroext i1 @_ZN2cv11TiffDecoder8nextPageEv(ptr noundef nonnull align 8 dereferenceable(400) %0) unnamed_addr #3 align 2 {
  %2 = getelementptr inbounds nuw i8, ptr %0, i64 368
  %3 = load ptr, ptr %2, align 8, !tbaa !82
  %4 = icmp eq ptr %3, null
  br i1 %4, label %9, label %5

5:                                                ; preds = %1
  %6 = tail call i32 @TIFFReadDirectory(ptr noundef nonnull %3)
  %.not = icmp eq i32 %6, 0
  br i1 %.not, label %9, label %7

7:                                                ; preds = %5
  %8 = tail call noundef zeroext i1 @_ZN2cv11TiffDecoder10readHeaderEv(ptr noundef nonnull align 8 dereferenceable(400) %0)
  br label %9

9:                                                ; preds = %7, %5, %1
  %10 = phi i1 [ false, %5 ], [ false, %1 ], [ %8, %7 ]
  ret i1 %10
}